target datalayout = "e-m:e-p270:32:32-p271:32:32-p272:64:64-i64:64-i128:128-f80:128-n8:16:32:64-S128"
target triple = "x86_64-pc-linux-gnu"

%struct.proxy_hwm_cfg_t = type { ptr, i32, [4 x ptr], [4 x ptr], ptr }

@.str.4 = private unnamed_addr constant [10 x i8] c"TERMINATE\00", align 1
@.str.5 = private unnamed_addr constant [49 x i8] c"usage: proxy_thr <message-size> <message-count>\0A\00", align 1
@_ZL12message_size = internal global i64 0, align 8
@_ZL13message_count = internal global i64 0, align 8
@.str.6 = private unnamed_addr constant [22 x i8] c"message size: %d [B]\0A\00", align 1
@.str.7 = private unnamed_addr constant [19 x i8] c"message count: %d\0A\00", align 1
@.str.8 = private unnamed_addr constant [19 x i8] c"inproc://perf_pub1\00", align 1
@.str.9 = private unnamed_addr constant [19 x i8] c"inproc://perf_pub2\00", align 1
@.str.10 = private unnamed_addr constant [22 x i8] c"inproc://perf_backend\00", align 1
@.str.11 = private unnamed_addr constant [14 x i8] c"inproc://ctrl\00", align 1
@.str.12 = private unnamed_addr constant [29 x i8] c"mean throughput: %d [msg/s]\0A\00", align 1
@.str.13 = private unnamed_addr constant [30 x i8] c"mean throughput: %.3f [Mb/s]\0A\00", align 1

; Function Attrs: mustprogress uwtable
define dso_local void @_Z15terminate_proxyPK15proxy_hwm_cfg_t(ptr noundef %0) #0 {
  %2 = alloca ptr, align 8
  %3 = alloca ptr, align 8
  %4 = alloca i32, align 4
  store ptr %0, ptr %2, align 8, !tbaa !12
  call void @llvm.lifetime.start.p0(i64 8, ptr %3) #9
  %5 = load ptr, ptr %2, align 8, !tbaa !12
  %6 = getelementptr inbounds nuw %struct.proxy_hwm_cfg_t, ptr %5, i32 0, i32 0
  %7 = load ptr, ptr %6, align 8, !tbaa !13
  %8 = call ptr @zmq_socket(ptr noundef %7, i32 noundef 3)
  store ptr %8, ptr %3, align 8, !tbaa !12
  call void @llvm.lifetime.start.p0(i64 4, ptr %4) #9
  %9 = load ptr, ptr %3, align 8, !tbaa !12
  %10 = load ptr, ptr %2, align 8, !tbaa !12
  %11 = getelementptr inbounds nuw %struct.proxy_hwm_cfg_t, ptr %10, i32 0, i32 4
  %12 = load ptr, ptr %11, align 8, !tbaa !15
  %13 = call i32 @zmq_connect(ptr noundef %9, ptr noundef %12)
  store i32 %13, ptr %4, align 4, !tbaa !4
  br label %14

14:                                               ; preds = %1
  br label %15

15:                                               ; preds = %14
  br label %16

16:                                               ; preds = %15
  %17 = load ptr, ptr %3, align 8, !tbaa !12
  %18 = call i32 @zmq_send(ptr noundef %17, ptr noundef @.str.4, i64 noundef 9, i32 noundef 0)
  store i32 %18, ptr %4, align 4, !tbaa !4
  br label %19

19:                                               ; preds = %16
  br label %20

20:                                               ; preds = %19
  br label %21

21:                                               ; preds = %20
  %22 = load ptr, ptr %3, align 8, !tbaa !12
  %23 = call i32 @zmq_close(ptr noundef %22)
  call void @llvm.lifetime.end.p0(i64 4, ptr %4) #9
  call void @llvm.lifetime.end.p0(i64 8, ptr %3) #9
  ret void
}

; Function Attrs: inlinehint mustprogress nounwind willreturn memory(read) uwtable
define available_externally i32 @atoi(ptr noundef nonnull %0) #5 {
  %2 = alloca ptr, align 8
  store ptr %0, ptr %2, align 8, !tbaa !8
  %3 = load ptr, ptr %2, align 8, !tbaa !8
  %4 = call i64 @strtol(ptr noundef %3, ptr noundef null, i32 noundef 10) #9
  %5 = trunc i64 %4 to i32
  ret i32 %5
}

; Function Attrs: mustprogress norecurse uwtable
define dso_local noundef i32 @main(i32 noundef %0, ptr noundef %1) #4 {
  %3 = alloca i32, align 4
  %4 = alloca i32, align 4
  %5 = alloca ptr, align 8
  %6 = alloca ptr, align 8
  %7 = alloca i32, align 4
  %8 = alloca ptr, align 8
  %9 = alloca ptr, align 8
  %10 = alloca ptr, align 8
  %11 = alloca %struct.proxy_hwm_cfg_t, align 8
  %12 = alloca %struct.proxy_hwm_cfg_t, align 8
  %13 = alloca ptr, align 8
  %14 = alloca %struct.proxy_hwm_cfg_t, align 8
  %15 = alloca ptr, align 8
  %16 = alloca ptr, align 8
  %17 = alloca %struct.proxy_hwm_cfg_t, align 8
  %18 = alloca ptr, align 8
  %19 = alloca %struct.proxy_hwm_cfg_t, align 8
  %20 = alloca ptr, align 8
  %21 = alloca i64, align 8
  %22 = alloca i64, align 8
  %23 = alloca double, align 8
  %24 = alloca i32, align 4
  store i32 0, ptr %3, align 4
  store i32 %0, ptr %4, align 4, !tbaa !4
  store ptr %1, ptr %5, align 8, !tbaa !16
  %25 = load i32, ptr %4, align 4, !tbaa !4
  %26 = icmp ne i32 %25, 3
  br i1 %26, label %27, label %29

27:                                               ; preds = %2
  %28 = call i32 (ptr, ...) @printf(ptr noundef @.str.5)
  store i32 1, ptr %3, align 4
  br label %105

29:                                               ; preds = %2
  %30 = load ptr, ptr %5, align 8, !tbaa !16
  %31 = getelementptr inbounds ptr, ptr %30, i64 1
  %32 = load ptr, ptr %31, align 8, !tbaa !8
  %33 = call i32 @atoi(ptr noundef %32) #11
  %34 = sext i32 %33 to i64
  store i64 %34, ptr @_ZL12message_size, align 8, !tbaa !19
  %35 = load ptr, ptr %5, align 8, !tbaa !16
  %36 = getelementptr inbounds ptr, ptr %35, i64 2
  %37 = load ptr, ptr %36, align 8, !tbaa !8
  %38 = call i32 @atoi(ptr noundef %37) #11
  %39 = sext i32 %38 to i64
  store i64 %39, ptr @_ZL13message_count, align 8, !tbaa !19
  %40 = load i64, ptr @_ZL12message_size, align 8, !tbaa !19
  %41 = trunc i64 %40 to i32
  %42 = call i32 (ptr, ...) @printf(ptr noundef @.str.6, i32 noundef %41)
  %43 = load i64, ptr @_ZL13message_count, align 8, !tbaa !19
  %44 = trunc i64 %43 to i32
  %45 = call i32 (ptr, ...) @printf(ptr noundef @.str.7, i32 noundef %44)
  call void @llvm.lifetime.start.p0(i64 8, ptr %6) #9
  %46 = call ptr @zmq_ctx_new()
  store ptr %46, ptr %6, align 8, !tbaa !12
  call void @llvm.lifetime.start.p0(i64 4, ptr %7) #9
  %47 = load ptr, ptr %6, align 8, !tbaa !12
  %48 = call i32 @zmq_ctx_set(ptr noundef %47, i32 noundef 1, i32 noundef 4)
  store i32 %48, ptr %7, align 4, !tbaa !4
  br label %49

49:                                               ; preds = %29
  br label %50

50:                                               ; preds = %49
  br label %51

51:                                               ; preds = %50
  call void @llvm.lifetime.start.p0(i64 8, ptr %8) #9
  store ptr @.str.8, ptr %8, align 8, !tbaa !8
  call void @llvm.lifetime.start.p0(i64 8, ptr %9) #9
  store ptr @.str.9, ptr %9, align 8, !tbaa !8
  call void @llvm.lifetime.start.p0(i64 8, ptr %10) #9
  store ptr @.str.10, ptr %10, align 8, !tbaa !8
  call void @llvm.lifetime.start.p0(i64 88, ptr %11) #9
  call void @llvm.memset.p0.i64(ptr align 8 %11, i8 0, i64 88, i1 false)
  %52 = load ptr, ptr %6, align 8, !tbaa !12
  %53 = getelementptr inbounds nuw %struct.proxy_hwm_cfg_t, ptr %11, i32 0, i32 0
  store ptr %52, ptr %53, align 8, !tbaa !13
  %54 = load ptr, ptr %8, align 8, !tbaa !8
  %55 = getelementptr inbounds nuw %struct.proxy_hwm_cfg_t, ptr %11, i32 0, i32 2
  %56 = getelementptr inbounds [4 x ptr], ptr %55, i64 0, i64 0
  store ptr %54, ptr %56, align 8, !tbaa !8
  %57 = load ptr, ptr %9, align 8, !tbaa !8
  %58 = getelementptr inbounds nuw %struct.proxy_hwm_cfg_t, ptr %11, i32 0, i32 2
  %59 = getelementptr inbounds [4 x ptr], ptr %58, i64 0, i64 1
  store ptr %57, ptr %59, align 8, !tbaa !8
  %60 = load ptr, ptr %10, align 8, !tbaa !8
  %61 = getelementptr inbounds nuw %struct.proxy_hwm_cfg_t, ptr %11, i32 0, i32 3
  %62 = getelementptr inbounds [4 x ptr], ptr %61, i64 0, i64 0
  store ptr %60, ptr %62, align 8, !tbaa !8
  %63 = getelementptr inbounds nuw %struct.proxy_hwm_cfg_t, ptr %11, i32 0, i32 4
  store ptr @.str.11, ptr %63, align 8, !tbaa !15
  call void @llvm.lifetime.start.p0(i64 88, ptr %12) #9
  call void @llvm.memcpy.p0.p0.i64(ptr align 8 %12, ptr align 8 %11, i64 88, i1 false), !tbaa.struct !21
  call void @llvm.lifetime.start.p0(i64 8, ptr %13) #9
  %64 = call ptr @zmq_threadstart(ptr noundef @_ZL17proxy_thread_mainPv, ptr noundef %12)
  store ptr %64, ptr %13, align 8, !tbaa !12
  call void @llvm.lifetime.start.p0(i64 88, ptr %14) #9
  call void @llvm.memcpy.p0.p0.i64(ptr align 8 %14, ptr align 8 %11, i64 88, i1 false), !tbaa.struct !21
  %65 = getelementptr inbounds nuw %struct.proxy_hwm_cfg_t, ptr %14, i32 0, i32 1
  store i32 0, ptr %65, align 8, !tbaa !22
  call void @llvm.lifetime.start.p0(i64 8, ptr %15) #9
  %66 = call ptr @zmq_threadstart(ptr noundef @_ZL22subscriber_thread_mainPv, ptr noundef %14)
  store ptr %66, ptr %15, align 8, !tbaa !12
  call void @llvm.lifetime.start.p0(i64 8, ptr %16) #9
  %67 = call ptr @zmq_stopwatch_start()
  store ptr %67, ptr %16, align 8, !tbaa !12
  call void @llvm.lifetime.start.p0(i64 88, ptr %17) #9
  call void @llvm.memcpy.p0.p0.i64(ptr align 8 %17, ptr align 8 %11, i64 88, i1 false), !tbaa.struct !21
  %68 = getelementptr inbounds nuw %struct.proxy_hwm_cfg_t, ptr %17, i32 0, i32 1
  store i32 0, ptr %68, align 8, !tbaa !22
  call void @llvm.lifetime.start.p0(i64 8, ptr %18) #9
  %69 = call ptr @zmq_threadstart(ptr noundef @_ZL21publisher_thread_mainPv, ptr noundef %17)
  store ptr %69, ptr %18, align 8, !tbaa !12
  call void @llvm.lifetime.start.p0(i64 88, ptr %19) #9
  call void @llvm.memcpy.p0.p0.i64(ptr align 8 %19, ptr align 8 %11, i64 88, i1 false), !tbaa.struct !21
  %70 = getelementptr inbounds nuw %struct.proxy_hwm_cfg_t, ptr %19, i32 0, i32 1
  store i32 1, ptr %70, align 8, !tbaa !22
  call void @llvm.lifetime.start.p0(i64 8, ptr %20) #9
  %71 = call ptr @zmq_threadstart(ptr noundef @_ZL21publisher_thread_mainPv, ptr noundef %19)
  store ptr %71, ptr %20, align 8, !tbaa !12
  %72 = load ptr, ptr %15, align 8, !tbaa !12
  call void @zmq_threadclose(ptr noundef %72)
  call void @llvm.lifetime.start.p0(i64 8, ptr %21) #9
  %73 = load ptr, ptr %16, align 8, !tbaa !12
  %74 = call i64 @zmq_stopwatch_stop(ptr noundef %73)
  store i64 %74, ptr %21, align 8, !tbaa !19
  %75 = load i64, ptr %21, align 8, !tbaa !19
  %76 = icmp eq i64 %75, 0
  br i1 %76, label %77, label %78

77:                                               ; preds = %51
  store i64 1, ptr %21, align 8, !tbaa !19
  br label %78

78:                                               ; preds = %77, %51
  call void @llvm.lifetime.start.p0(i64 8, ptr %22) #9
  %79 = load i64, ptr @_ZL13message_count, align 8, !tbaa !19
  %80 = uitofp i64 %79 to double
  %81 = load i64, ptr %21, align 8, !tbaa !19
  %82 = uitofp i64 %81 to double
  %83 = fdiv double %80, %82
  %84 = fmul double %83, 1.000000e+06
  %85 = fptoui double %84 to i64
  store i64 %85, ptr %22, align 8, !tbaa !19
  call void @llvm.lifetime.start.p0(i64 8, ptr %23) #9
  %86 = load i64, ptr %22, align 8, !tbaa !19
  %87 = load i64, ptr @_ZL12message_size, align 8, !tbaa !19
  %88 = mul i64 %86, %87
  %89 = mul i64 %88, 8
  %90 = uitofp i64 %89 to double
  %91 = fdiv double %90, 1.000000e+06
  store double %91, ptr %23, align 8, !tbaa !23
  %92 = load i64, ptr %22, align 8, !tbaa !19
  %93 = trunc i64 %92 to i32
  %94 = call i32 (ptr, ...) @printf(ptr noundef @.str.12, i32 noundef %93)
  %95 = load double, ptr %23, align 8, !tbaa !23
  %96 = call i32 (ptr, ...) @printf(ptr noundef @.str.13, double noundef %95)
  %97 = load ptr, ptr %18, align 8, !tbaa !12
  call void @zmq_threadclose(ptr noundef %97)
  %98 = load ptr, ptr %20, align 8, !tbaa !12
  call void @zmq_threadclose(ptr noundef %98)
  call void @_Z15terminate_proxyPK15proxy_hwm_cfg_t(ptr noundef %12)
  %99 = load ptr, ptr %13, align 8, !tbaa !12
  call void @zmq_threadclose(ptr noundef %99)
  call void @llvm.lifetime.start.p0(i64 4, ptr %24) #9
  %100 = load ptr, ptr %6, align 8, !tbaa !12
  %101 = call i32 @zmq_ctx_term(ptr noundef %100)
  store i32 %101, ptr %24, align 4, !tbaa !4
  br label %102

102:                                              ; preds = %78
  br label %103

103:                                              ; preds = %102
  br label %104

104:                                              ; preds = %103
  store i32 0, ptr %3, align 4
  call void @llvm.lifetime.end.p0(i64 4, ptr %24) #9
  call void @llvm.lifetime.end.p0(i64 8, ptr %23) #9
  call void @llvm.lifetime.end.p0(i64 8, ptr %22) #9
  call void @llvm.lifetime.end.p0(i64 8, ptr %21) #9
  call void @llvm.lifetime.end.p0(i64 8, ptr %20) #9
  call void @llvm.lifetime.end.p0(i64 88, ptr %19) #9
  call void @llvm.lifetime.end.p0(i64 8, ptr %18) #9
  call void @llvm.lifetime.end.p0(i64 88, ptr %17) #9
  call void @llvm.lifetime.end.p0(i64 8, ptr %16) #9
  call void @llvm.lifetime.end.p0(i64 8, ptr %15) #9
  call void @llvm.lifetime.end.p0(i64 88, ptr %14) #9
  call void @llvm.lifetime.end.p0(i64 8, ptr %13) #9
  call void @llvm.lifetime.end.p0(i64 88, ptr %12) #9
  call void @llvm.lifetime.end.p0(i64 88, ptr %11) #9
  call void @llvm.lifetime.end.p0(i64 8, ptr %10) #9
  call void @llvm.lifetime.end.p0(i64 8, ptr %9) #9
  call void @llvm.lifetime.end.p0(i64 8, ptr %8) #9
  call void @llvm.lifetime.end.p0(i64 4, ptr %7) #9
  call void @llvm.lifetime.end.p0(i64 8, ptr %6) #9
  br label %105

105:                                              ; preds = %104, %27
  %106 = load i32, ptr %3, align 4
  ret i32 %106
}