; Function Attrs: mustprogress norecurse uwtable
define dso_local noundef range(i32 0, 2) i32 @main(i32 noundef %0, ptr noundef readonly captures(none) %1) local_unnamed_addr #5 {
  %3 = alloca %struct.proxy_hwm_cfg_t, align 8
  %4 = alloca %struct.proxy_hwm_cfg_t, align 8
  %5 = alloca %struct.proxy_hwm_cfg_t, align 8
  %6 = alloca %struct.proxy_hwm_cfg_t, align 8
  %.not = icmp eq i32 %0, 3
  br i1 %.not, label %8, label %7

7:                                                ; preds = %2
  %puts = tail call i32 @puts(ptr nonnull dereferenceable(1) @str)
  br label %51

8:                                                ; preds = %2
  %9 = getelementptr inbounds nuw i8, ptr %1, i64 8
  %10 = load ptr, ptr %9, align 8, !tbaa !12
  %11 = tail call i64 @strtol(ptr noundef nonnull captures(none) %10, ptr noundef null, i32 noundef 10) #11
  %12 = trunc i64 %11 to i32
  %sext = shl i64 %11, 32
  %13 = ashr exact i64 %sext, 32
  store i64 %13, ptr @_ZL12message_size, align 8, !tbaa !13
  %14 = getelementptr inbounds nuw i8, ptr %1, i64 16
  %15 = load ptr, ptr %14, align 8, !tbaa !12
  %16 = tail call i64 @strtol(ptr noundef nonnull captures(none) %15, ptr noundef null, i32 noundef 10) #11
  %sext64 = shl i64 %16, 32
  %17 = ashr exact i64 %sext64, 32
  store i64 %17, ptr @_ZL13message_count, align 8, !tbaa !13
  %18 = tail call i32 (ptr, ...) @printf(ptr noundef nonnull dereferenceable(1) @.str.6, i32 noundef %12)
  %19 = load i64, ptr @_ZL13message_count, align 8, !tbaa !13
  %20 = trunc nsw i64 %19 to i32
  %21 = tail call i32 (ptr, ...) @printf(ptr noundef nonnull dereferenceable(1) @.str.7, i32 noundef %20)
  %22 = tail call ptr @zmq_ctx_new()
  %23 = tail call i32 @zmq_ctx_set(ptr noundef %22, i32 noundef 1, i32 noundef 4)
  %.sroa.10.0..sroa_idx33 = getelementptr inbounds nuw i8, ptr %6, i64 32
  call void @llvm.lifetime.start.p0(i64 88, ptr nonnull %6) #11
  call void @llvm.memset.p0.i64(ptr noundef nonnull align 8 dereferenceable(16) %.sroa.10.0..sroa_idx33, i8 0, i64 16, i1 false)
  %.sroa.11.0..sroa_idx43 = getelementptr inbounds nuw i8, ptr %6, i64 56
  call void @llvm.memset.p0.i64(ptr noundef nonnull align 8 dereferenceable(24) %.sroa.11.0..sroa_idx43, i8 0, i64 24, i1 false)
  call void @llvm.lifetime.start.p0(i64 88, ptr nonnull %3) #11
  store ptr %22, ptr %3, align 8, !tbaa !15
  %.sroa.8.0..sroa_idx = getelementptr inbounds nuw i8, ptr %3, i64 8
  store i64 0, ptr %.sroa.8.0..sroa_idx, align 8
  %.sroa.818.0..sroa_idx = getelementptr inbounds nuw i8, ptr %3, i64 16
  store ptr @.str.8, ptr %.sroa.818.0..sroa_idx, align 8
  %.sroa.9.0..sroa_idx = getelementptr inbounds nuw i8, ptr %3, i64 24
  store ptr @.str.9, ptr %.sroa.9.0..sroa_idx, align 8
  %.sroa.10.0..sroa_idx = getelementptr inbounds nuw i8, ptr %3, i64 32
  call void @llvm.memset.p0.i64(ptr noundef nonnull align 8 dereferenceable(16) %.sroa.10.0..sroa_idx, i8 0, i64 16, i1 false)
  %.sroa.1034.0..sroa_idx = getelementptr inbounds nuw i8, ptr %3, i64 48
  store ptr @.str.10, ptr %.sroa.1034.0..sroa_idx, align 8
  %.sroa.11.0..sroa_idx = getelementptr inbounds nuw i8, ptr %3, i64 56
  call void @llvm.memset.p0.i64(ptr noundef nonnull align 8 dereferenceable(24) %.sroa.11.0..sroa_idx, i8 0, i64 24, i1 false)
  %.sroa.1144.0..sroa_idx = getelementptr inbounds nuw i8, ptr %3, i64 80
  store ptr @.str.11, ptr %.sroa.1144.0..sroa_idx, align 8, !tbaa !12
  %24 = call ptr @zmq_threadstart(ptr noundef nonnull @_ZL17proxy_thread_mainPv, ptr noundef nonnull %3)
  call void @llvm.lifetime.start.p0(i64 88, ptr nonnull %4) #11
  store ptr %22, ptr %4, align 8, !tbaa !15
  %.sroa.8.0..sroa_idx12 = getelementptr inbounds nuw i8, ptr %4, i64 8
  store i64 0, ptr %.sroa.8.0..sroa_idx12, align 8
  %.sroa.818.0..sroa_idx19 = getelementptr inbounds nuw i8, ptr %4, i64 16
  store ptr @.str.8, ptr %.sroa.818.0..sroa_idx19, align 8
  %.sroa.9.0..sroa_idx25 = getelementptr inbounds nuw i8, ptr %4, i64 24
  store ptr @.str.9, ptr %.sroa.9.0..sroa_idx25, align 8
  %.sroa.10.0..sroa_idx31 = getelementptr inbounds nuw i8, ptr %4, i64 32
  call void @llvm.memset.p0.i64(ptr noundef nonnull align 8 dereferenceable(16) %.sroa.10.0..sroa_idx31, i8 0, i64 16, i1 false)
  %.sroa.1034.0..sroa_idx35 = getelementptr inbounds nuw i8, ptr %4, i64 48
  store ptr @.str.10, ptr %.sroa.1034.0..sroa_idx35, align 8
  %.sroa.11.0..sroa_idx41 = getelementptr inbounds nuw i8, ptr %4, i64 56
  call void @llvm.memset.p0.i64(ptr noundef nonnull align 8 dereferenceable(24) %.sroa.11.0..sroa_idx41, i8 0, i64 24, i1 false)
  %.sroa.1144.0..sroa_idx45 = getelementptr inbounds nuw i8, ptr %4, i64 80
  store ptr @.str.11, ptr %.sroa.1144.0..sroa_idx45, align 8, !tbaa !12
  %25 = call ptr @zmq_threadstart(ptr noundef nonnull @_ZL22subscriber_thread_mainPv, ptr noundef nonnull %4)
  %26 = call ptr @zmq_stopwatch_start()
  call void @llvm.lifetime.start.p0(i64 88, ptr nonnull %5) #11
  store ptr %22, ptr %5, align 8, !tbaa !15
  %.sroa.8.0..sroa_idx14 = getelementptr inbounds nuw i8, ptr %5, i64 8
  store i64 0, ptr %.sroa.8.0..sroa_idx14, align 8
  %.sroa.818.0..sroa_idx21 = getelementptr inbounds nuw i8, ptr %5, i64 16
  store ptr @.str.8, ptr %.sroa.818.0..sroa_idx21, align 8
  %.sroa.9.0..sroa_idx27 = getelementptr inbounds nuw i8, ptr %5, i64 24
  store ptr @.str.9, ptr %.sroa.9.0..sroa_idx27, align 8
  %.sroa.10.0..sroa_idx32 = getelementptr inbounds nuw i8, ptr %5, i64 32
  call void @llvm.memset.p0.i64(ptr noundef nonnull align 8 dereferenceable(16) %.sroa.10.0..sroa_idx32, i8 0, i64 16, i1 false)
  %.sroa.1034.0..sroa_idx37 = getelementptr inbounds nuw i8, ptr %5, i64 48
  store ptr @.str.10, ptr %.sroa.1034.0..sroa_idx37, align 8
  %.sroa.11.0..sroa_idx42 = getelementptr inbounds nuw i8, ptr %5, i64 56
  call void @llvm.memset.p0.i64(ptr noundef nonnull align 8 dereferenceable(24) %.sroa.11.0..sroa_idx42, i8 0, i64 24, i1 false)
  %.sroa.1144.0..sroa_idx47 = getelementptr inbounds nuw i8, ptr %5, i64 80
  store ptr @.str.11, ptr %.sroa.1144.0..sroa_idx47, align 8, !tbaa !12
  %27 = call ptr @zmq_threadstart(ptr noundef nonnull @_ZL21publisher_thread_mainPv, ptr noundef nonnull %5)
  store ptr %22, ptr %6, align 8, !tbaa !15
  %.sroa.8.0..sroa_idx16 = getelementptr inbounds nuw i8, ptr %6, i64 8
  store i64 1, ptr %.sroa.8.0..sroa_idx16, align 8
  %.sroa.818.0..sroa_idx23 = getelementptr inbounds nuw i8, ptr %6, i64 16
  store ptr @.str.8, ptr %.sroa.818.0..sroa_idx23, align 8
  %.sroa.9.0..sroa_idx29 = getelementptr inbounds nuw i8, ptr %6, i64 24
  store ptr @.str.9, ptr %.sroa.9.0..sroa_idx29, align 8
  %.sroa.1034.0..sroa_idx39 = getelementptr inbounds nuw i8, ptr %6, i64 48
  store ptr @.str.10, ptr %.sroa.1034.0..sroa_idx39, align 8
  %.sroa.1144.0..sroa_idx49 = getelementptr inbounds nuw i8, ptr %6, i64 80
  store ptr @.str.11, ptr %.sroa.1144.0..sroa_idx49, align 8, !tbaa !12
  %28 = call ptr @zmq_threadstart(ptr noundef nonnull @_ZL21publisher_thread_mainPv, ptr noundef nonnull %6)
  call void @zmq_threadclose(ptr noundef %25)
  %29 = call i64 @zmq_stopwatch_stop(ptr noundef %26)
  %spec.store.select = call i64 @llvm.umax.i64(i64 %29, i64 1)
  %30 = load i64, ptr @_ZL13message_count, align 8, !tbaa !13
  %31 = uitofp i64 %30 to double
  %32 = uitofp i64 %spec.store.select to double
  %33 = fdiv double %31, %32
  %34 = fmul double %33, 1.000000e+06
  %35 = fptoui double %34 to i64
  %36 = load i64, ptr @_ZL12message_size, align 8, !tbaa !13
  %37 = shl i64 %36, 3
  %38 = mul i64 %37, %35
  %39 = uitofp i64 %38 to double
  %40 = fdiv double %39, 1.000000e+06
  %41 = trunc i64 %35 to i32
  %42 = call i32 (ptr, ...) @printf(ptr noundef nonnull dereferenceable(1) @.str.12, i32 noundef %41)
  %43 = call i32 (ptr, ...) @printf(ptr noundef nonnull dereferenceable(1) @.str.13, double noundef %40)
  call void @zmq_threadclose(ptr noundef %27)
  call void @zmq_threadclose(ptr noundef %28)
  %44 = load ptr, ptr %3, align 8, !tbaa !4
  %45 = call ptr @zmq_socket(ptr noundef %44, i32 noundef 3)
  %46 = load ptr, ptr %.sroa.1144.0..sroa_idx, align 8, !tbaa !11
  %47 = call i32 @zmq_connect(ptr noundef %45, ptr noundef %46)
  %48 = call i32 @zmq_send(ptr noundef %45, ptr noundef nonnull @.str.4, i64 noundef 9, i32 noundef 0)
  %49 = call i32 @zmq_close(ptr noundef %45)
  call void @zmq_threadclose(ptr noundef %24)
  %50 = call i32 @zmq_ctx_term(ptr noundef %22)
  call void @llvm.lifetime.end.p0(i64 88, ptr nonnull %6) #11
  call void @llvm.lifetime.end.p0(i64 88, ptr nonnull %5) #11
  call void @llvm.lifetime.end.p0(i64 88, ptr nonnull %4) #11
  call void @llvm.lifetime.end.p0(i64 88, ptr nonnull %3) #11
  br label %51

51:                                               ; preds = %8, %7
  %.0 = phi i32 [ 1, %7 ], [ 0, %8 ]
  ret i32 %.0
}